target datalayout = "e-m:e-p270:32:32-p271:32:32-p272:64:64-i64:64-i128:128-f80:128-n8:16:32:64-S128"
target triple = "x86_64-pc-linux-gnu"

@dlamch_.first = internal global i32 1, align 4
@dlamch_.base = internal global double 0.000000e+00, align 8
@dlamch_.emin = internal global double 0.000000e+00, align 8
@dlamch_.prec = internal global double 0.000000e+00, align 8
@dlamch_.emax = internal global double 0.000000e+00, align 8
@dlamch_.rmin = internal global double 0.000000e+00, align 8
@dlamch_.rmax = internal global double 0.000000e+00, align 8
@dlamch_.t = internal global double 0.000000e+00, align 8
@dlamch_.sfmin = internal global double 0.000000e+00, align 8
@dlamch_.rnd = internal global double 0.000000e+00, align 8
@dlamch_.eps = internal global double 0.000000e+00, align 8
@.str = private unnamed_addr constant [2 x i8] c"E\00", align 1
@.str.1 = private unnamed_addr constant [2 x i8] c"S\00", align 1
@.str.2 = private unnamed_addr constant [2 x i8] c"B\00", align 1
@.str.3 = private unnamed_addr constant [2 x i8] c"P\00", align 1
@.str.4 = private unnamed_addr constant [2 x i8] c"N\00", align 1
@.str.5 = private unnamed_addr constant [2 x i8] c"R\00", align 1
@.str.6 = private unnamed_addr constant [2 x i8] c"M\00", align 1
@.str.7 = private unnamed_addr constant [2 x i8] c"U\00", align 1
@.str.8 = private unnamed_addr constant [2 x i8] c"L\00", align 1
@.str.9 = private unnamed_addr constant [2 x i8] c"O\00", align 1

; Function Attrs: nounwind uwtable
define internal double @dpow_ui(double noundef %0, i32 noundef %1) #0 {
  %3 = alloca double, align 8
  %4 = alloca i32, align 4
  %5 = alloca double, align 8
  %6 = alloca i64, align 8
  store double %0, ptr %3, align 8, !tbaa !10
  store i32 %1, ptr %4, align 4, !tbaa !8
  call void @llvm.lifetime.start.p0(i64 8, ptr %5) #3
  store double 1.000000e+00, ptr %5, align 8, !tbaa !10
  call void @llvm.lifetime.start.p0(i64 8, ptr %6) #3
  %7 = load i32, ptr %4, align 4, !tbaa !8
  %8 = icmp ne i32 %7, 0
  br i1 %8, label %9, label %39

9:                                                ; preds = %2
  %10 = load i32, ptr %4, align 4, !tbaa !8
  %11 = icmp slt i32 %10, 0
  br i1 %11, label %12, label %17

12:                                               ; preds = %9
  %13 = load i32, ptr %4, align 4, !tbaa !8
  %14 = sub nsw i32 0, %13
  store i32 %14, ptr %4, align 4, !tbaa !8
  %15 = load double, ptr %3, align 8, !tbaa !10
  %16 = fdiv double 1.000000e+00, %15
  store double %16, ptr %3, align 8, !tbaa !10
  br label %17

17:                                               ; preds = %12, %9
  %18 = load i32, ptr %4, align 4, !tbaa !8
  %19 = sext i32 %18 to i64
  store i64 %19, ptr %6, align 8, !tbaa !19
  br label %20

20:                                               ; preds = %37, %17
  %21 = load i64, ptr %6, align 8, !tbaa !19
  %22 = and i64 %21, 1
  %23 = icmp ne i64 %22, 0
  br i1 %23, label %24, label %28

24:                                               ; preds = %20
  %25 = load double, ptr %3, align 8, !tbaa !10
  %26 = load double, ptr %5, align 8, !tbaa !10
  %27 = fmul double %26, %25
  store double %27, ptr %5, align 8, !tbaa !10
  br label %28

28:                                               ; preds = %24, %20
  %29 = load i64, ptr %6, align 8, !tbaa !19
  %30 = lshr i64 %29, 1
  store i64 %30, ptr %6, align 8, !tbaa !19
  %31 = icmp ne i64 %30, 0
  br i1 %31, label %32, label %36

32:                                               ; preds = %28
  %33 = load double, ptr %3, align 8, !tbaa !10
  %34 = load double, ptr %3, align 8, !tbaa !10
  %35 = fmul double %34, %33
  store double %35, ptr %3, align 8, !tbaa !10
  br label %37

36:                                               ; preds = %28
  br label %38

37:                                               ; preds = %32
  br label %20

38:                                               ; preds = %36
  br label %39

39:                                               ; preds = %38, %2
  %40 = load double, ptr %5, align 8, !tbaa !10
  call void @llvm.lifetime.end.p0(i64 8, ptr %6) #3
  call void @llvm.lifetime.end.p0(i64 8, ptr %5) #3
  ret double %40
}

; Function Attrs: nounwind uwtable
define double @dlamch_(ptr noundef %0) #0 {
  %2 = alloca ptr, align 8
  %3 = alloca i32, align 4
  %4 = alloca double, align 8
  %5 = alloca i32, align 4
  %6 = alloca i32, align 4
  %7 = alloca i32, align 4
  %8 = alloca i32, align 4
  %9 = alloca double, align 8
  %10 = alloca double, align 8
  %11 = alloca i32, align 4
  store ptr %0, ptr %2, align 8, !tbaa !3
  call void @llvm.lifetime.start.p0(i64 4, ptr %3) #3
  call void @llvm.lifetime.start.p0(i64 8, ptr %4) #3
  call void @llvm.lifetime.start.p0(i64 4, ptr %5) #3
  call void @llvm.lifetime.start.p0(i64 4, ptr %6) #3
  call void @llvm.lifetime.start.p0(i64 4, ptr %7) #3
  call void @llvm.lifetime.start.p0(i64 4, ptr %8) #3
  call void @llvm.lifetime.start.p0(i64 8, ptr %9) #3
  call void @llvm.lifetime.start.p0(i64 8, ptr %10) #3
  call void @llvm.lifetime.start.p0(i64 4, ptr %11) #3
  %12 = load i32, ptr @dlamch_.first, align 4, !tbaa !8
  %13 = icmp ne i32 %12, 0
  br i1 %13, label %14, label %55

14:                                               ; preds = %1
  %15 = call i32 @dlamc2_(ptr noundef %5, ptr noundef %11, ptr noundef %8, ptr noundef @dlamch_.eps, ptr noundef %6, ptr noundef @dlamch_.rmin, ptr noundef %7, ptr noundef @dlamch_.rmax)
  %16 = load i32, ptr %5, align 4, !tbaa !8
  %17 = sitofp i32 %16 to double
  store double %17, ptr @dlamch_.base, align 8, !tbaa !10
  %18 = load i32, ptr %11, align 4, !tbaa !8
  %19 = sitofp i32 %18 to double
  store double %19, ptr @dlamch_.t, align 8, !tbaa !10
  %20 = load i32, ptr %8, align 4, !tbaa !8
  %21 = icmp ne i32 %20, 0
  br i1 %21, label %22, label %29

22:                                               ; preds = %14
  store double 1.000000e+00, ptr @dlamch_.rnd, align 8, !tbaa !10
  %23 = load i32, ptr %11, align 4, !tbaa !8
  %24 = sub nsw i32 1, %23
  store i32 %24, ptr %3, align 4, !tbaa !8
  %25 = load double, ptr @dlamch_.base, align 8, !tbaa !10
  %26 = load i32, ptr %3, align 4, !tbaa !8
  %27 = call double @dpow_ui(double noundef %25, i32 noundef %26)
  %28 = fdiv double %27, 2.000000e+00
  store double %28, ptr @dlamch_.eps, align 8, !tbaa !10
  br label %35

29:                                               ; preds = %14
  store double 0.000000e+00, ptr @dlamch_.rnd, align 8, !tbaa !10
  %30 = load i32, ptr %11, align 4, !tbaa !8
  %31 = sub nsw i32 1, %30
  store i32 %31, ptr %3, align 4, !tbaa !8
  %32 = load double, ptr @dlamch_.base, align 8, !tbaa !10
  %33 = load i32, ptr %3, align 4, !tbaa !8
  %34 = call double @dpow_ui(double noundef %32, i32 noundef %33)
  store double %34, ptr @dlamch_.eps, align 8, !tbaa !10
  br label %35

35:                                               ; preds = %29, %22
  %36 = load double, ptr @dlamch_.eps, align 8, !tbaa !10
  %37 = load double, ptr @dlamch_.base, align 8, !tbaa !10
  %38 = fmul double %36, %37
  store double %38, ptr @dlamch_.prec, align 8, !tbaa !10
  %39 = load i32, ptr %6, align 4, !tbaa !8
  %40 = sitofp i32 %39 to double
  store double %40, ptr @dlamch_.emin, align 8, !tbaa !10
  %41 = load i32, ptr %7, align 4, !tbaa !8
  %42 = sitofp i32 %41 to double
  store double %42, ptr @dlamch_.emax, align 8, !tbaa !10
  %43 = load double, ptr @dlamch_.rmin, align 8, !tbaa !10
  store double %43, ptr @dlamch_.sfmin, align 8, !tbaa !10
  %44 = load double, ptr @dlamch_.rmax, align 8, !tbaa !10
  %45 = fdiv double 1.000000e+00, %44
  store double %45, ptr %10, align 8, !tbaa !10
  %46 = load double, ptr %10, align 8, !tbaa !10
  %47 = load double, ptr @dlamch_.sfmin, align 8, !tbaa !10
  %48 = fcmp oge double %46, %47
  br i1 %48, label %49, label %54

49:                                               ; preds = %35
  %50 = load double, ptr %10, align 8, !tbaa !10
  %51 = load double, ptr @dlamch_.eps, align 8, !tbaa !10
  %52 = fadd double %51, 1.000000e+00
  %53 = fmul double %50, %52
  store double %53, ptr @dlamch_.sfmin, align 8, !tbaa !10
  br label %54

54:                                               ; preds = %49, %35
  br label %55

55:                                               ; preds = %54, %1
  %56 = load ptr, ptr %2, align 8, !tbaa !3
  %57 = call i32 @lsame_(ptr noundef %56, ptr noundef @.str)
  %58 = icmp ne i32 %57, 0
  br i1 %58, label %59, label %61

59:                                               ; preds = %55
  %60 = load double, ptr @dlamch_.eps, align 8, !tbaa !10
  store double %60, ptr %9, align 8, !tbaa !10
  br label %124

61:                                               ; preds = %55
  %62 = load ptr, ptr %2, align 8, !tbaa !3
  %63 = call i32 @lsame_(ptr noundef %62, ptr noundef @.str.1)
  %64 = icmp ne i32 %63, 0
  br i1 %64, label %65, label %67

65:                                               ; preds = %61
  %66 = load double, ptr @dlamch_.sfmin, align 8, !tbaa !10
  store double %66, ptr %9, align 8, !tbaa !10
  br label %123

67:                                               ; preds = %61
  %68 = load ptr, ptr %2, align 8, !tbaa !3
  %69 = call i32 @lsame_(ptr noundef %68, ptr noundef @.str.2)
  %70 = icmp ne i32 %69, 0
  br i1 %70, label %71, label %73

71:                                               ; preds = %67
  %72 = load double, ptr @dlamch_.base, align 8, !tbaa !10
  store double %72, ptr %9, align 8, !tbaa !10
  br label %122

73:                                               ; preds = %67
  %74 = load ptr, ptr %2, align 8, !tbaa !3
  %75 = call i32 @lsame_(ptr noundef %74, ptr noundef @.str.3)
  %76 = icmp ne i32 %75, 0
  br i1 %76, label %77, label %79

77:                                               ; preds = %73
  %78 = load double, ptr @dlamch_.prec, align 8, !tbaa !10
  store double %78, ptr %9, align 8, !tbaa !10
  br label %121

79:                                               ; preds = %73
  %80 = load ptr, ptr %2, align 8, !tbaa !3
  %81 = call i32 @lsame_(ptr noundef %80, ptr noundef @.str.4)
  %82 = icmp ne i32 %81, 0
  br i1 %82, label %83, label %85

83:                                               ; preds = %79
  %84 = load double, ptr @dlamch_.t, align 8, !tbaa !10
  store double %84, ptr %9, align 8, !tbaa !10
  br label %120

85:                                               ; preds = %79
  %86 = load ptr, ptr %2, align 8, !tbaa !3
  %87 = call i32 @lsame_(ptr noundef %86, ptr noundef @.str.5)
  %88 = icmp ne i32 %87, 0
  br i1 %88, label %89, label %91

89:                                               ; preds = %85
  %90 = load double, ptr @dlamch_.rnd, align 8, !tbaa !10
  store double %90, ptr %9, align 8, !tbaa !10
  br label %119

91:                                               ; preds = %85
  %92 = load ptr, ptr %2, align 8, !tbaa !3
  %93 = call i32 @lsame_(ptr noundef %92, ptr noundef @.str.6)
  %94 = icmp ne i32 %93, 0
  br i1 %94, label %95, label %97

95:                                               ; preds = %91
  %96 = load double, ptr @dlamch_.emin, align 8, !tbaa !10
  store double %96, ptr %9, align 8, !tbaa !10
  br label %118

97:                                               ; preds = %91
  %98 = load ptr, ptr %2, align 8, !tbaa !3
  %99 = call i32 @lsame_(ptr noundef %98, ptr noundef @.str.7)
  %100 = icmp ne i32 %99, 0
  br i1 %100, label %101, label %103

101:                                              ; preds = %97
  %102 = load double, ptr @dlamch_.rmin, align 8, !tbaa !10
  store double %102, ptr %9, align 8, !tbaa !10
  br label %117

103:                                              ; preds = %97
  %104 = load ptr, ptr %2, align 8, !tbaa !3
  %105 = call i32 @lsame_(ptr noundef %104, ptr noundef @.str.8)
  %106 = icmp ne i32 %105, 0
  br i1 %106, label %107, label %109

107:                                              ; preds = %103
  %108 = load double, ptr @dlamch_.emax, align 8, !tbaa !10
  store double %108, ptr %9, align 8, !tbaa !10
  br label %116

109:                                              ; preds = %103
  %110 = load ptr, ptr %2, align 8, !tbaa !3
  %111 = call i32 @lsame_(ptr noundef %110, ptr noundef @.str.9)
  %112 = icmp ne i32 %111, 0
  br i1 %112, label %113, label %115

113:                                              ; preds = %109
  %114 = load double, ptr @dlamch_.rmax, align 8, !tbaa !10
  store double %114, ptr %9, align 8, !tbaa !10
  br label %115

115:                                              ; preds = %113, %109
  br label %116

116:                                              ; preds = %115, %107
  br label %117

117:                                              ; preds = %116, %101
  br label %118

118:                                              ; preds = %117, %95
  br label %119

119:                                              ; preds = %118, %89
  br label %120

120:                                              ; preds = %119, %83
  br label %121

121:                                              ; preds = %120, %77
  br label %122

122:                                              ; preds = %121, %71
  br label %123

123:                                              ; preds = %122, %65
  br label %124

124:                                              ; preds = %123, %59
  %125 = load double, ptr %9, align 8, !tbaa !10
  store double %125, ptr %4, align 8, !tbaa !10
  store i32 0, ptr @dlamch_.first, align 4, !tbaa !8
  %126 = load double, ptr %4, align 8, !tbaa !10
  call void @llvm.lifetime.end.p0(i64 4, ptr %11) #3
  call void @llvm.lifetime.end.p0(i64 8, ptr %10) #3
  call void @llvm.lifetime.end.p0(i64 8, ptr %9) #3
  call void @llvm.lifetime.end.p0(i64 4, ptr %8) #3
  call void @llvm.lifetime.end.p0(i64 4, ptr %7) #3
  call void @llvm.lifetime.end.p0(i64 4, ptr %6) #3
  call void @llvm.lifetime.end.p0(i64 4, ptr %5) #3
  call void @llvm.lifetime.end.p0(i64 8, ptr %4) #3
  call void @llvm.lifetime.end.p0(i64 4, ptr %3) #3
  ret double %126
}